target datalayout = "e-m:e-p270:32:32-p271:32:32-p272:64:64-i64:64-i128:128-f80:128-n8:16:32:64-S128"
target triple = "x86_64-unknown-linux-gnu"

%struct.ecc_key = type { i32, i32, i32, i32, ptr, ptr, %struct.ecc_point, [1 x %struct.sp_int], ptr }
%struct.ecc_point = type { [1 x %struct.sp_int], [1 x %struct.sp_int], [1 x %struct.sp_int] }
%struct.sp_int = type { i32, i32, [129 x i64] }

; Function Attrs: nounwind uwtable
define i32 @wc_ecc_free(ptr noundef %key) #0 {
entry:
  %retval = alloca i32, align 4
  %key.addr = alloca ptr, align 8
  store ptr %key, ptr %key.addr, align 8
  %0 = load ptr, ptr %key.addr, align 8
  %cmp = icmp eq ptr %0, null
  br i1 %cmp, label %if.then, label %if.end

if.then:                                          ; preds = %entry
  store i32 0, ptr %retval, align 4
  br label %return

if.end:                                           ; preds = %entry
  %1 = load ptr, ptr %key.addr, align 8
  %pubkey = getelementptr inbounds %struct.ecc_key, ptr %1, i32 0, i32 6
  %x = getelementptr inbounds %struct.ecc_point, ptr %pubkey, i32 0, i32 0
  %arraydecay = getelementptr inbounds [1 x %struct.sp_int], ptr %x, i64 0, i64 0
  call void @sp_clear(ptr noundef %arraydecay)
  %2 = load ptr, ptr %key.addr, align 8
  %pubkey1 = getelementptr inbounds %struct.ecc_key, ptr %2, i32 0, i32 6
  %y = getelementptr inbounds %struct.ecc_point, ptr %pubkey1, i32 0, i32 1
  %arraydecay2 = getelementptr inbounds [1 x %struct.sp_int], ptr %y, i64 0, i64 0
  call void @sp_clear(ptr noundef %arraydecay2)
  %3 = load ptr, ptr %key.addr, align 8
  %pubkey3 = getelementptr inbounds %struct.ecc_key, ptr %3, i32 0, i32 6
  %z = getelementptr inbounds %struct.ecc_point, ptr %pubkey3, i32 0, i32 2
  %arraydecay4 = getelementptr inbounds [1 x %struct.sp_int], ptr %z, i64 0, i64 0
  call void @sp_clear(ptr noundef %arraydecay4)
  %4 = load ptr, ptr %key.addr, align 8
  %k = getelementptr inbounds %struct.ecc_key, ptr %4, i32 0, i32 7
  %arraydecay5 = getelementptr inbounds [1 x %struct.sp_int], ptr %k, i64 0, i64 0
  call void @sp_forcezero(ptr noundef %arraydecay5)
  store i32 0, ptr %retval, align 4
  br label %return

return:                                           ; preds = %if.end, %if.then
  %5 = load i32, ptr %retval, align 4
  ret i32 %5
}