; Function Attrs: nounwind uwtable
define noundef i32 @wc_ecc_free(ptr noundef %key) local_unnamed_addr #2 {
entry:
  %cmp = icmp eq ptr %key, null
  br i1 %cmp, label %return, label %if.end

if.end:                                           ; preds = %entry
  %pubkey = getelementptr inbounds nuw i8, ptr %key, i64 32
  tail call void @sp_clear(ptr noundef nonnull %pubkey) #19
  %y = getelementptr inbounds nuw i8, ptr %key, i64 1072
  tail call void @sp_clear(ptr noundef nonnull %y) #19
  %z = getelementptr inbounds nuw i8, ptr %key, i64 2112
  tail call void @sp_clear(ptr noundef nonnull %z) #19
  %k = getelementptr inbounds nuw i8, ptr %key, i64 3152
  tail call void @sp_forcezero(ptr noundef nonnull %k) #19
  br label %return

return:                                           ; preds = %entry, %if.end
  ret i32 0
}